; ModuleID = '14/1513.c'
source_filename = "14/1513.c"
target datalayout = "e-m:e-p270:32:32-p271:32:32-p272:64:64-i64:64-f80:128-n8:16:32:64-S128"
target triple = "x86_64-pc-linux-gnu"

%struct.student = type { i32, i32, i32, i32 }

@.str = private unnamed_addr constant [3 x i8] c"%d\00", align 1
@.str.1 = private unnamed_addr constant [7 x i8] c"%d%d%d\00", align 1
@stu = common dso_local global [100000 x %struct.student] zeroinitializer, align 16
@.str.2 = private unnamed_addr constant [7 x i8] c"%d %d\0A\00", align 1

; Function Attrs: noinline nounwind uwtable
define dso_local i32 @main() #0 {
  %1 = alloca i32, align 4
  %2 = alloca i32, align 4
  %3 = alloca i32, align 4
  %4 = alloca i32, align 4
  %5 = alloca i32, align 4
  %6 = alloca i32, align 4
  %7 = alloca [3 x i32], align 4
  store i32 0, i32* %1, align 4
  %8 = call i32 (i8*, ...) @__isoc99_scanf(i8* getelementptr inbounds ([3 x i8], [3 x i8]* @.str, i64 0, i64 0), i32* %2)
  store i32 0, i32* %3, align 4
  br label %9

9:                                                ; preds = %42, %0
  %10 = load i32, i32* %3, align 4
  %11 = load i32, i32* %2, align 4
  %12 = icmp slt i32 %10, %11
  br i1 %12, label %13, label %45

13:                                               ; preds = %9
  %14 = load i32, i32* %3, align 4
  %15 = sext i32 %14 to i64
  %16 = getelementptr inbounds [100000 x %struct.student], [100000 x %struct.student]* @stu, i64 0, i64 %15
  %17 = getelementptr inbounds %struct.student, %struct.student* %16, i32 0, i32 0
  %18 = load i32, i32* %3, align 4
  %19 = sext i32 %18 to i64
  %20 = getelementptr inbounds [100000 x %struct.student], [100000 x %struct.student]* @stu, i64 0, i64 %19
  %21 = getelementptr inbounds %struct.student, %struct.student* %20, i32 0, i32 1
  %22 = load i32, i32* %3, align 4
  %23 = sext i32 %22 to i64
  %24 = getelementptr inbounds [100000 x %struct.student], [100000 x %struct.student]* @stu, i64 0, i64 %23
  %25 = getelementptr inbounds %struct.student, %struct.student* %24, i32 0, i32 2
  %26 = call i32 (i8*, ...) @__isoc99_scanf(i8* getelementptr inbounds ([7 x i8], [7 x i8]* @.str.1, i64 0, i64 0), i32* %17, i32* %21, i32* %25)
  %27 = load i32, i32* %3, align 4
  %28 = sext i32 %27 to i64
  %29 = getelementptr inbounds [100000 x %struct.student], [100000 x %struct.student]* @stu, i64 0, i64 %28
  %30 = getelementptr inbounds %struct.student, %struct.student* %29, i32 0, i32 1
  %31 = load i32, i32* %30, align 4
  %32 = load i32, i32* %3, align 4
  %33 = sext i32 %32 to i64
  %34 = getelementptr inbounds [100000 x %struct.student], [100000 x %struct.student]* @stu, i64 0, i64 %33
  %35 = getelementptr inbounds %struct.student, %struct.student* %34, i32 0, i32 2
  %36 = load i32, i32* %35, align 8
  %37 = add nsw i32 %31, %36
  %38 = load i32, i32* %3, align 4
  %39 = sext i32 %38 to i64
  %40 = getelementptr inbounds [100000 x %struct.student], [100000 x %struct.student]* @stu, i64 0, i64 %39
  %41 = getelementptr inbounds %struct.student, %struct.student* %40, i32 0, i32 3
  store i32 %37, i32* %41, align 4
  br label %42

42:                                               ; preds = %13
  %43 = load i32, i32* %3, align 4
  %44 = add nsw i32 %43, 1
  store i32 %44, i32* %3, align 4
  br label %9

45:                                               ; preds = %9
  %46 = bitcast [3 x i32]* %7 to i8*
  call void @llvm.memset.p0i8.i64(i8* align 4 %46, i8 0, i64 12, i1 false)
  store i32 1, i32* %3, align 4
  br label %47

47:                                               ; preds = %114, %45
  %48 = load i32, i32* %3, align 4
  %49 = load i32, i32* %2, align 4
  %50 = icmp slt i32 %48, %49
  br i1 %50, label %51, label %117

51:                                               ; preds = %47
  %52 = load i32, i32* %3, align 4
  %53 = sext i32 %52 to i64
  %54 = getelementptr inbounds [100000 x %struct.student], [100000 x %struct.student]* @stu, i64 0, i64 %53
  %55 = getelementptr inbounds %struct.student, %struct.student* %54, i32 0, i32 3
  %56 = load i32, i32* %55, align 4
  %57 = getelementptr inbounds [3 x i32], [3 x i32]* %7, i64 0, i64 0
  %58 = load i32, i32* %57, align 4
  %59 = sext i32 %58 to i64
  %60 = getelementptr inbounds [100000 x %struct.student], [100000 x %struct.student]* @stu, i64 0, i64 %59
  %61 = getelementptr inbounds %struct.student, %struct.student* %60, i32 0, i32 3
  %62 = load i32, i32* %61, align 4
  %63 = icmp sgt i32 %56, %62
  br i1 %63, label %64, label %75

64:                                               ; preds = %51
  %65 = getelementptr inbounds [3 x i32], [3 x i32]* %7, i64 0, i64 0
  %66 = load i32, i32* %65, align 4
  store i32 %66, i32* %5, align 4
  %67 = getelementptr inbounds [3 x i32], [3 x i32]* %7, i64 0, i64 1
  %68 = load i32, i32* %67, align 4
  store i32 %68, i32* %6, align 4
  %69 = load i32, i32* %3, align 4
  %70 = getelementptr inbounds [3 x i32], [3 x i32]* %7, i64 0, i64 0
  store i32 %69, i32* %70, align 4
  %71 = load i32, i32* %5, align 4
  %72 = getelementptr inbounds [3 x i32], [3 x i32]* %7, i64 0, i64 1
  store i32 %71, i32* %72, align 4
  %73 = load i32, i32* %6, align 4
  %74 = getelementptr inbounds [3 x i32], [3 x i32]* %7, i64 0, i64 2
  store i32 %73, i32* %74, align 4
  br label %113

75:                                               ; preds = %51
  %76 = load i32, i32* %3, align 4
  %77 = sext i32 %76 to i64
  %78 = getelementptr inbounds [100000 x %struct.student], [100000 x %struct.student]* @stu, i64 0, i64 %77
  %79 = getelementptr inbounds %struct.student, %struct.student* %78, i32 0, i32 3
  %80 = load i32, i32* %79, align 4
  %81 = getelementptr inbounds [3 x i32], [3 x i32]* %7, i64 0, i64 1
  %82 = load i32, i32* %81, align 4
  %83 = sext i32 %82 to i64
  %84 = getelementptr inbounds [100000 x %struct.student], [100000 x %struct.student]* @stu, i64 0, i64 %83
  %85 = getelementptr inbounds %struct.student, %struct.student* %84, i32 0, i32 3
  %86 = load i32, i32* %85, align 4
  %87 = icmp sgt i32 %80, %86
  br i1 %87, label %88, label %95

88:                                               ; preds = %75
  %89 = getelementptr inbounds [3 x i32], [3 x i32]* %7, i64 0, i64 1
  %90 = load i32, i32* %89, align 4
  store i32 %90, i32* %5, align 4
  %91 = load i32, i32* %3, align 4
  %92 = getelementptr inbounds [3 x i32], [3 x i32]* %7, i64 0, i64 1
  store i32 %91, i32* %92, align 4
  %93 = load i32, i32* %5, align 4
  %94 = getelementptr inbounds [3 x i32], [3 x i32]* %7, i64 0, i64 2
  store i32 %93, i32* %94, align 4
  br label %112

95:                                               ; preds = %75
  %96 = load i32, i32* %3, align 4
  %97 = sext i32 %96 to i64
  %98 = getelementptr inbounds [100000 x %struct.student], [100000 x %struct.student]* @stu, i64 0, i64 %97
  %99 = getelementptr inbounds %struct.student, %struct.student* %98, i32 0, i32 3
  %100 = load i32, i32* %99, align 4
  %101 = getelementptr inbounds [3 x i32], [3 x i32]* %7, i64 0, i64 2
  %102 = load i32, i32* %101, align 4
  %103 = sext i32 %102 to i64
  %104 = getelementptr inbounds [100000 x %struct.student], [100000 x %struct.student]* @stu, i64 0, i64 %103
  %105 = getelementptr inbounds %struct.student, %struct.student* %104, i32 0, i32 3
  %106 = load i32, i32* %105, align 4
  %107 = icmp sgt i32 %100, %106
  br i1 %107, label %108, label %111

108:                                              ; preds = %95
  %109 = load i32, i32* %3, align 4
  %110 = getelementptr inbounds [3 x i32], [3 x i32]* %7, i64 0, i64 2
  store i32 %109, i32* %110, align 4
  br label %111

111:                                              ; preds = %108, %95
  br label %112

112:                                              ; preds = %111, %88
  br label %113

113:                                              ; preds = %112, %64
  br label %114

114:                                              ; preds = %113
  %115 = load i32, i32* %3, align 4
  %116 = add nsw i32 %115, 1
  store i32 %116, i32* %3, align 4
  br label %47

117:                                              ; preds = %47
  store i32 0, i32* %3, align 4
  br label %118

118:                                              ; preds = %139, %117
  %119 = load i32, i32* %3, align 4
  %120 = icmp slt i32 %119, 3
  br i1 %120, label %121, label %142

121:                                              ; preds = %118
  %122 = load i32, i32* %3, align 4
  %123 = sext i32 %122 to i64
  %124 = getelementptr inbounds [3 x i32], [3 x i32]* %7, i64 0, i64 %123
  %125 = load i32, i32* %124, align 4
  %126 = sext i32 %125 to i64
  %127 = getelementptr inbounds [100000 x %struct.student], [100000 x %struct.student]* @stu, i64 0, i64 %126
  %128 = getelementptr inbounds %struct.student, %struct.student* %127, i32 0, i32 0
  %129 = load i32, i32* %128, align 16
  %130 = load i32, i32* %3, align 4
  %131 = sext i32 %130 to i64
  %132 = getelementptr inbounds [3 x i32], [3 x i32]* %7, i64 0, i64 %131
  %133 = load i32, i32* %132, align 4
  %134 = sext i32 %133 to i64
  %135 = getelementptr inbounds [100000 x %struct.student], [100000 x %struct.student]* @stu, i64 0, i64 %134
  %136 = getelementptr inbounds %struct.student, %struct.student* %135, i32 0, i32 3
  %137 = load i32, i32* %136, align 4
  %138 = call i32 (i8*, ...) @printf(i8* getelementptr inbounds ([7 x i8], [7 x i8]* @.str.2, i64 0, i64 0), i32 %129, i32 %137)
  br label %139

139:                                              ; preds = %121
  %140 = load i32, i32* %3, align 4
  %141 = add nsw i32 %140, 1
  store i32 %141, i32* %3, align 4
  br label %118

142:                                              ; preds = %118
  ret i32 0
}

declare dso_local i32 @__isoc99_scanf(i8*, ...) #1

; Function Attrs: argmemonly nounwind willreturn
declare void @llvm.memset.p0i8.i64(i8* nocapture writeonly, i8, i64, i1 immarg) #2

declare dso_local i32 @printf(i8*, ...) #1


!llvm.module.flags = !{!0}
!llvm.ident = !{!1}

!0 = !{i32 1, !"wchar_size", i32 4}
!1 = !{!"clang version 10.0.0-4ubuntu1 "}
